; ModuleID = 'source-C-CXX/60/1023.cpp'
source_filename = "source-C-CXX/60/1023.cpp"
target datalayout = "e-m:e-p270:32:32-p271:32:32-p272:64:64-i64:64-f80:128-n8:16:32:64-S128"
target triple = "x86_64-pc-linux-gnu"

%"class.std::ios_base::Init" = type { i8 }
%"class.std::basic_istream" = type { i32 (...)**, i64, %"class.std::basic_ios" }
%"class.std::basic_ios" = type { %"class.std::ios_base", %"class.std::basic_ostream"*, i8, i8, %"class.std::basic_streambuf"*, %"class.std::ctype"*, %"class.std::num_put"*, %"class.std::num_get"* }
%"class.std::ios_base" = type { i32 (...)**, i64, i64, i32, i32, i32, %"struct.std::ios_base::_Callback_list"*, %"struct.std::ios_base::_Words", [8 x %"struct.std::ios_base::_Words"], i32, %"struct.std::ios_base::_Words"*, %"class.std::locale" }
%"struct.std::ios_base::_Callback_list" = type { %"struct.std::ios_base::_Callback_list"*, void (i32, %"class.std::ios_base"*, i32)*, i32, i32 }
%"struct.std::ios_base::_Words" = type { i8*, i64 }
%"class.std::locale" = type { %"class.std::locale::_Impl"* }
%"class.std::locale::_Impl" = type { i32, %"class.std::locale::facet"**, i64, %"class.std::locale::facet"**, i8** }
%"class.std::locale::facet" = type <{ i32 (...)**, i32, [4 x i8] }>
%"class.std::basic_ostream" = type { i32 (...)**, %"class.std::basic_ios" }
%"class.std::basic_streambuf" = type { i32 (...)**, i8*, i8*, i8*, i8*, i8*, i8*, %"class.std::locale" }
%"class.std::ctype" = type <{ %"class.std::locale::facet.base", [4 x i8], %struct.__locale_struct*, i8, [7 x i8], i32*, i32*, i16*, i8, [256 x i8], [256 x i8], i8, [6 x i8] }>
%"class.std::locale::facet.base" = type <{ i32 (...)**, i32 }>
%struct.__locale_struct = type { [13 x %struct.__locale_data*], i16*, i32*, i32*, [13 x i8*] }
%struct.__locale_data = type opaque
%"class.std::num_put" = type { %"class.std::locale::facet.base", [4 x i8] }
%"class.std::num_get" = type { %"class.std::locale::facet.base", [4 x i8] }

@_ZStL8__ioinit = internal global %"class.std::ios_base::Init" zeroinitializer, align 1
@__dso_handle = external hidden global i8
@_ZSt3cin = external global %"class.std::basic_istream", align 8
@_ZSt4cout = external global %"class.std::basic_ostream", align 8
@llvm.global_ctors = appending global [1 x { i32, void ()*, i8* }] [{ i32, void ()*, i8* } { i32 65535, void ()* @_GLOBAL__sub_I_1023.cpp, i8* null }]

declare void @_ZNSt8ios_base4InitC1Ev(%"class.std::ios_base::Init"* nonnull align 1 dereferenceable(1)) unnamed_addr #0

; Function Attrs: nounwind
declare void @_ZNSt8ios_base4InitD1Ev(%"class.std::ios_base::Init"* nonnull align 1 dereferenceable(1)) unnamed_addr #1

; Function Attrs: nofree nounwind
declare i32 @__cxa_atexit(void (i8*)*, i8*, i8*) local_unnamed_addr #2

; Function Attrs: mustprogress norecurse sspstrong uwtable
define dso_local i32 @main() local_unnamed_addr #3 {
  %1 = alloca i32, align 4
  %2 = alloca [20 x i32], align 16
  %3 = alloca [20 x i32], align 16
  %4 = bitcast i32* %1 to i8*
  call void @llvm.lifetime.start.p0i8(i64 4, i8* nonnull %4) #7
  %5 = bitcast [20 x i32]* %2 to i8*
  call void @llvm.lifetime.start.p0i8(i64 80, i8* nonnull %5) #7
  %6 = bitcast [20 x i32]* %3 to i8*
  call void @llvm.lifetime.start.p0i8(i64 80, i8* nonnull %6) #7
  %7 = call nonnull align 8 dereferenceable(16) %"class.std::basic_istream"* @_ZNSirsERi(%"class.std::basic_istream"* nonnull align 8 dereferenceable(16) @_ZSt3cin, i32* nonnull align 4 dereferenceable(4) %1)
  %8 = load i32, i32* %1, align 4, !tbaa !5
  %9 = icmp sgt i32 %8, 0
  br i1 %9, label %10, label %61

10:                                               ; preds = %0, %10
  %11 = phi i64 [ %14, %10 ], [ 0, %0 ]
  %12 = getelementptr inbounds [20 x i32], [20 x i32]* %2, i64 0, i64 %11
  %13 = call nonnull align 8 dereferenceable(16) %"class.std::basic_istream"* @_ZNSirsERi(%"class.std::basic_istream"* nonnull align 8 dereferenceable(16) @_ZSt3cin, i32* nonnull align 4 dereferenceable(4) %12)
  %14 = add nuw nsw i64 %11, 1
  %15 = load i32, i32* %1, align 4, !tbaa !5
  %16 = sext i32 %15 to i64
  %17 = icmp slt i64 %14, %16
  br i1 %17, label %10, label %61, !llvm.loop !9

18:                                               ; preds = %61, %52
  %19 = phi i64 [ %56, %52 ], [ 0, %61 ]
  %20 = getelementptr inbounds [20 x i32], [20 x i32]* %2, i64 0, i64 %19
  %21 = load i32, i32* %20, align 4, !tbaa !5
  %22 = add nsw i32 %21, -1
  %23 = sext i32 %22 to i64
  %24 = getelementptr inbounds [20 x i32], [20 x i32]* %3, i64 0, i64 %23
  %25 = load i32, i32* %24, align 4, !tbaa !5
  %26 = call nonnull align 8 dereferenceable(8) %"class.std::basic_ostream"* @_ZNSolsEi(%"class.std::basic_ostream"* nonnull align 8 dereferenceable(8) @_ZSt4cout, i32 %25)
  %27 = bitcast %"class.std::basic_ostream"* %26 to i8**
  %28 = load i8*, i8** %27, align 8, !tbaa !11
  %29 = getelementptr i8, i8* %28, i64 -24
  %30 = bitcast i8* %29 to i64*
  %31 = load i64, i64* %30, align 8
  %32 = bitcast %"class.std::basic_ostream"* %26 to i8*
  %33 = add nsw i64 %31, 240
  %34 = getelementptr inbounds i8, i8* %32, i64 %33
  %35 = bitcast i8* %34 to %"class.std::ctype"**
  %36 = load %"class.std::ctype"*, %"class.std::ctype"** %35, align 8, !tbaa !13
  %37 = icmp eq %"class.std::ctype"* %36, null
  br i1 %37, label %38, label %39

38:                                               ; preds = %18
  call void @_ZSt16__throw_bad_castv() #8
  unreachable

39:                                               ; preds = %18
  %40 = getelementptr inbounds %"class.std::ctype", %"class.std::ctype"* %36, i64 0, i32 8
  %41 = load i8, i8* %40, align 8, !tbaa !17
  %42 = icmp eq i8 %41, 0
  br i1 %42, label %46, label %43

43:                                               ; preds = %39
  %44 = getelementptr inbounds %"class.std::ctype", %"class.std::ctype"* %36, i64 0, i32 9, i64 10
  %45 = load i8, i8* %44, align 1, !tbaa !19
  br label %52

46:                                               ; preds = %39
  call void @_ZNKSt5ctypeIcE13_M_widen_initEv(%"class.std::ctype"* nonnull align 8 dereferenceable(570) %36)
  %47 = bitcast %"class.std::ctype"* %36 to i8 (%"class.std::ctype"*, i8)***
  %48 = load i8 (%"class.std::ctype"*, i8)**, i8 (%"class.std::ctype"*, i8)*** %47, align 8, !tbaa !11
  %49 = getelementptr inbounds i8 (%"class.std::ctype"*, i8)*, i8 (%"class.std::ctype"*, i8)** %48, i64 6
  %50 = load i8 (%"class.std::ctype"*, i8)*, i8 (%"class.std::ctype"*, i8)** %49, align 8
  %51 = call signext i8 %50(%"class.std::ctype"* nonnull align 8 dereferenceable(570) %36, i8 signext 10)
  br label %52

52:                                               ; preds = %43, %46
  %53 = phi i8 [ %45, %43 ], [ %51, %46 ]
  %54 = call nonnull align 8 dereferenceable(8) %"class.std::basic_ostream"* @_ZNSo3putEc(%"class.std::basic_ostream"* nonnull align 8 dereferenceable(8) %26, i8 signext %53)
  %55 = call nonnull align 8 dereferenceable(8) %"class.std::basic_ostream"* @_ZNSo5flushEv(%"class.std::basic_ostream"* nonnull align 8 dereferenceable(8) %54)
  %56 = add nuw nsw i64 %19, 1
  %57 = load i32, i32* %1, align 4, !tbaa !5
  %58 = sext i32 %57 to i64
  %59 = icmp slt i64 %56, %58
  br i1 %59, label %18, label %60, !llvm.loop !20

60:                                               ; preds = %52, %61
  call void @llvm.lifetime.end.p0i8(i64 80, i8* nonnull %6) #7
  call void @llvm.lifetime.end.p0i8(i64 80, i8* nonnull %5) #7
  call void @llvm.lifetime.end.p0i8(i64 4, i8* nonnull %4) #7
  ret i32 0

61:                                               ; preds = %10, %0
  %62 = phi i32 [ %8, %0 ], [ %15, %10 ]
  %63 = bitcast [20 x i32]* %3 to <4 x i32>*
  store <4 x i32> <i32 1, i32 1, i32 2, i32 3>, <4 x i32>* %63, align 16
  %64 = getelementptr inbounds [20 x i32], [20 x i32]* %3, i64 0, i64 4
  %65 = bitcast i32* %64 to <4 x i32>*
  store <4 x i32> <i32 5, i32 8, i32 13, i32 21>, <4 x i32>* %65, align 16
  %66 = getelementptr inbounds [20 x i32], [20 x i32]* %3, i64 0, i64 8
  %67 = bitcast i32* %66 to <4 x i32>*
  store <4 x i32> <i32 34, i32 55, i32 89, i32 144>, <4 x i32>* %67, align 16
  %68 = getelementptr inbounds [20 x i32], [20 x i32]* %3, i64 0, i64 12
  %69 = bitcast i32* %68 to <4 x i32>*
  store <4 x i32> <i32 233, i32 377, i32 610, i32 987>, <4 x i32>* %69, align 16
  %70 = getelementptr inbounds [20 x i32], [20 x i32]* %3, i64 0, i64 16
  %71 = bitcast i32* %70 to <4 x i32>*
  store <4 x i32> <i32 1597, i32 2584, i32 4181, i32 6765>, <4 x i32>* %71, align 16
  %72 = icmp sgt i32 %62, 0
  br i1 %72, label %18, label %60
}

; Function Attrs: argmemonly mustprogress nofree nosync nounwind willreturn
declare void @llvm.lifetime.start.p0i8(i64 immarg, i8* nocapture) #4

declare nonnull align 8 dereferenceable(16) %"class.std::basic_istream"* @_ZNSirsERi(%"class.std::basic_istream"* nonnull align 8 dereferenceable(16), i32* nonnull align 4 dereferenceable(4)) local_unnamed_addr #0

declare nonnull align 8 dereferenceable(8) %"class.std::basic_ostream"* @_ZNSolsEi(%"class.std::basic_ostream"* nonnull align 8 dereferenceable(8), i32) local_unnamed_addr #0

; Function Attrs: argmemonly mustprogress nofree nosync nounwind willreturn
declare void @llvm.lifetime.end.p0i8(i64 immarg, i8* nocapture) #4

declare nonnull align 8 dereferenceable(8) %"class.std::basic_ostream"* @_ZNSo3putEc(%"class.std::basic_ostream"* nonnull align 8 dereferenceable(8), i8 signext) local_unnamed_addr #0

declare nonnull align 8 dereferenceable(8) %"class.std::basic_ostream"* @_ZNSo5flushEv(%"class.std::basic_ostream"* nonnull align 8 dereferenceable(8)) local_unnamed_addr #0

; Function Attrs: noreturn
declare void @_ZSt16__throw_bad_castv() local_unnamed_addr #5

declare void @_ZNKSt5ctypeIcE13_M_widen_initEv(%"class.std::ctype"* nonnull align 8 dereferenceable(570)) local_unnamed_addr #0

; Function Attrs: sspstrong uwtable
define internal void @_GLOBAL__sub_I_1023.cpp() #6 section ".text.startup" {
  tail call void @_ZNSt8ios_base4InitC1Ev(%"class.std::ios_base::Init"* nonnull align 1 dereferenceable(1) @_ZStL8__ioinit)
  %1 = tail call i32 @__cxa_atexit(void (i8*)* bitcast (void (%"class.std::ios_base::Init"*)* @_ZNSt8ios_base4InitD1Ev to void (i8*)*), i8* getelementptr inbounds (%"class.std::ios_base::Init", %"class.std::ios_base::Init"* @_ZStL8__ioinit, i64 0, i32 0), i8* nonnull @__dso_handle) #7
  ret void
}


!llvm.module.flags = !{!0, !1, !2, !3}
!llvm.ident = !{!4}

!0 = !{i32 1, !"wchar_size", i32 4}
!1 = !{i32 7, !"PIC Level", i32 2}
!2 = !{i32 7, !"PIE Level", i32 2}
!3 = !{i32 7, !"uwtable", i32 1}
!4 = !{!"clang version 13.0.0"}
!5 = !{!6, !6, i64 0}
!6 = !{!"int", !7, i64 0}
!7 = !{!"omnipotent char", !8, i64 0}
!8 = !{!"Simple C++ TBAA"}
!9 = distinct !{!9, !10}
!10 = !{!"llvm.loop.mustprogress"}
!11 = !{!12, !12, i64 0}
!12 = !{!"vtable pointer", !8, i64 0}
!13 = !{!14, !15, i64 240}
!14 = !{!"_ZTSSt9basic_iosIcSt11char_traitsIcEE", !15, i64 216, !7, i64 224, !16, i64 225, !15, i64 232, !15, i64 240, !15, i64 248, !15, i64 256}
!15 = !{!"any pointer", !7, i64 0}
!16 = !{!"bool", !7, i64 0}
!17 = !{!18, !7, i64 56}
!18 = !{!"_ZTSSt5ctypeIcE", !15, i64 16, !16, i64 24, !15, i64 32, !15, i64 40, !15, i64 48, !7, i64 56, !7, i64 57, !7, i64 313, !7, i64 569}
!19 = !{!7, !7, i64 0}
!20 = distinct !{!20, !10}
